; Function Attrs: mustprogress uwtable
define internal void @_ZN2cv12_GLOBAL__N_118warningLogCallbackEPKcPv(ptr noundef %0, ptr nocapture readnone %1) #3 personality ptr @__gxx_personality_v0 {
  %3 = alloca %"class.std::__cxx11::basic_stringstream", align 8
  %4 = alloca %"class.std::__cxx11::basic_string", align 8
  %5 = alloca %"class.std::__cxx11::basic_string", align 8
  %6 = tail call noundef ptr @_ZN2cv5utils7logging8internal15getGlobalLogTagEv()
  %.not = icmp eq ptr %6, null
  br i1 %.not, label %11, label %7

7:                                                ; preds = %2
  %8 = getelementptr inbounds i8, ptr %6, i64 8
  %9 = load i32, ptr %8, align 8
  %10 = icmp slt i32 %9, 3
  br i1 %10, label %30, label %11

11:                                               ; preds = %7, %2
  call void @_ZNSt7__cxx1118basic_stringstreamIcSt11char_traitsIcESaIcEEC1Ev(ptr noundef nonnull align 8 dereferenceable(128) %3)
  invoke void (ptr, ptr, ...) @_ZN2cv6formatB5cxx11EPKcz(ptr dead_on_unwind nonnull writable sret(%"class.std::__cxx11::basic_string") align 8 %4, ptr noundef nonnull @.str.42, ptr noundef %0)
          to label %12 unwind label %23

12:                                               ; preds = %11
  %13 = getelementptr inbounds i8, ptr %3, i64 16
  %14 = invoke noundef nonnull align 8 dereferenceable(8) ptr @_ZStlsIcSt11char_traitsIcESaIcEERSt13basic_ostreamIT_T0_ES7_RKNSt7__cxx1112basic_stringIS4_S5_T1_EE(ptr noundef nonnull align 8 dereferenceable(8) %13, ptr noundef nonnull align 8 dereferenceable(32) %4)
          to label %15 unwind label %25

15:                                               ; preds = %12
  call void @_ZNSt7__cxx1112basic_stringIcSt11char_traitsIcESaIcEED1Ev(ptr noundef nonnull align 8 dereferenceable(32) %4) #19
  br i1 %.not, label %18, label %16

16:                                               ; preds = %15
  %17 = load ptr, ptr %6, align 8
  br label %18

18:                                               ; preds = %15, %16
  %19 = phi ptr [ %17, %16 ], [ null, %15 ]
  invoke void @_ZNKSt7__cxx1118basic_stringstreamIcSt11char_traitsIcESaIcEE3strEv(ptr dead_on_unwind nonnull writable sret(%"class.std::__cxx11::basic_string") align 8 %5, ptr noundef nonnull align 8 dereferenceable(128) %3)
          to label %20 unwind label %23

20:                                               ; preds = %18
  %21 = call noundef ptr @_ZNKSt7__cxx1112basic_stringIcSt11char_traitsIcESaIcEE5c_strEv(ptr noundef nonnull align 8 dereferenceable(32) %5) #19
  invoke void @_ZN2cv5utils7logging8internal17writeLogMessageExENS1_8LogLevelEPKcS5_iS5_S5_(i32 noundef 3, ptr noundef %19, ptr noundef nonnull @.str.1, i32 noundef 304, ptr noundef nonnull @__func__._ZN2cv12_GLOBAL__N_118warningLogCallbackEPKcPv, ptr noundef %21)
          to label %22 unwind label %27

22:                                               ; preds = %20
  call void @_ZNSt7__cxx1112basic_stringIcSt11char_traitsIcESaIcEED1Ev(ptr noundef nonnull align 8 dereferenceable(32) %5) #19
  call void @_ZNSt7__cxx1118basic_stringstreamIcSt11char_traitsIcESaIcEED1Ev(ptr noundef nonnull align 8 dereferenceable(128) %3) #19
  br label %30

23:                                               ; preds = %18, %11
  %24 = landingpad { ptr, i32 }
          cleanup
  br label %29

25:                                               ; preds = %12
  %26 = landingpad { ptr, i32 }
          cleanup
  call void @_ZNSt7__cxx1112basic_stringIcSt11char_traitsIcESaIcEED1Ev(ptr noundef nonnull align 8 dereferenceable(32) %4) #19
  br label %29

27:                                               ; preds = %20
  %28 = landingpad { ptr, i32 }
          cleanup
  call void @_ZNSt7__cxx1112basic_stringIcSt11char_traitsIcESaIcEED1Ev(ptr noundef nonnull align 8 dereferenceable(32) %5) #19
  br label %29

29:                                               ; preds = %27, %25, %23
  %.pn = phi { ptr, i32 } [ %28, %27 ], [ %24, %23 ], [ %26, %25 ]
  call void @_ZNSt7__cxx1118basic_stringstreamIcSt11char_traitsIcESaIcEED1Ev(ptr noundef nonnull align 8 dereferenceable(128) %3) #19
  resume { ptr, i32 } %.pn

30:                                               ; preds = %7, %22
  ret void
}